; Function Attrs: nofree norecurse nosync nounwind memory(argmem: readwrite) uwtable
define internal fastcc void @ge_madd(ptr noundef nonnull captures(none) %0, ptr noundef readonly captures(none) %1, ptr noundef readonly captures(none) %2) unnamed_addr #0 {
  %4 = alloca [10 x i32], align 16
  call void @llvm.lifetime.start.p0(i64 40, ptr nonnull %4) #8
  %5 = getelementptr inbounds nuw i8, ptr %1, i64 40
  br label %6

6:                                                ; preds = %6, %3
  %indvars.iv.i = phi i64 [ 0, %3 ], [ %indvars.iv.next.i, %6 ]
  %7 = getelementptr inbounds nuw i32, ptr %5, i64 %indvars.iv.i
  %8 = load i32, ptr %7, align 4, !tbaa !18
  %9 = getelementptr inbounds nuw i32, ptr %1, i64 %indvars.iv.i
  %10 = load i32, ptr %9, align 4, !tbaa !18
  %11 = add nsw i32 %10, %8
  %12 = getelementptr inbounds nuw i32, ptr %0, i64 %indvars.iv.i
  store i32 %11, ptr %12, align 4, !tbaa !18
  %indvars.iv.next.i = add nuw nsw i64 %indvars.iv.i, 1
  %exitcond.not.i = icmp eq i64 %indvars.iv.next.i, 10
  br i1 %exitcond.not.i, label %fe_add.exit, label %6, !llvm.loop !21

fe_add.exit:                                      ; preds = %6
  %13 = getelementptr inbounds nuw i8, ptr %0, i64 40
  br label %14

14:                                               ; preds = %14, %fe_add.exit
  %indvars.iv.i27 = phi i64 [ 0, %fe_add.exit ], [ %indvars.iv.next.i28, %14 ]
  %15 = getelementptr inbounds nuw i32, ptr %5, i64 %indvars.iv.i27
  %16 = load i32, ptr %15, align 4, !tbaa !18
  %17 = getelementptr inbounds nuw i32, ptr %1, i64 %indvars.iv.i27
  %18 = load i32, ptr %17, align 4, !tbaa !18
  %19 = sub nsw i32 %16, %18
  %20 = getelementptr inbounds nuw i32, ptr %13, i64 %indvars.iv.i27
  store i32 %19, ptr %20, align 4, !tbaa !18
  %indvars.iv.next.i28 = add nuw nsw i64 %indvars.iv.i27, 1
  %exitcond.not.i29 = icmp eq i64 %indvars.iv.next.i28, 10
  br i1 %exitcond.not.i29, label %fe_sub.exit, label %14, !llvm.loop !20

fe_sub.exit:                                      ; preds = %14
  %21 = getelementptr inbounds nuw i8, ptr %0, i64 80
  tail call fastcc void @fe_mul(ptr noundef nonnull %21, ptr noundef nonnull %0, ptr noundef %2)
  %22 = getelementptr inbounds nuw i8, ptr %2, i64 40
  tail call fastcc void @fe_mul(ptr noundef nonnull %13, ptr noundef nonnull %13, ptr noundef nonnull %22)
  %23 = getelementptr inbounds nuw i8, ptr %0, i64 120
  %24 = getelementptr inbounds nuw i8, ptr %2, i64 80
  %25 = getelementptr inbounds nuw i8, ptr %1, i64 120
  tail call fastcc void @fe_mul(ptr noundef nonnull %23, ptr noundef nonnull %24, ptr noundef nonnull %25)
  %26 = getelementptr inbounds nuw i8, ptr %1, i64 80
  br label %27

27:                                               ; preds = %27, %fe_sub.exit
  %indvars.iv.i30 = phi i64 [ 0, %fe_sub.exit ], [ %indvars.iv.next.i31, %27 ]
  %28 = getelementptr inbounds nuw i32, ptr %26, i64 %indvars.iv.i30
  %29 = load i32, ptr %28, align 4, !tbaa !18
  %30 = shl nsw i32 %29, 1
  %31 = getelementptr inbounds nuw i32, ptr %4, i64 %indvars.iv.i30
  store i32 %30, ptr %31, align 4, !tbaa !18
  %indvars.iv.next.i31 = add nuw nsw i64 %indvars.iv.i30, 1
  %exitcond.not.i32 = icmp eq i64 %indvars.iv.next.i31, 10
  br i1 %exitcond.not.i32, label %fe_add.exit33, label %27, !llvm.loop !21

fe_add.exit33:                                    ; preds = %27, %fe_add.exit33
  %indvars.iv.i34 = phi i64 [ %indvars.iv.next.i35, %fe_add.exit33 ], [ 0, %27 ]
  %32 = getelementptr inbounds nuw i32, ptr %21, i64 %indvars.iv.i34
  %33 = load i32, ptr %32, align 4, !tbaa !18
  %34 = getelementptr inbounds nuw i32, ptr %13, i64 %indvars.iv.i34
  %35 = load i32, ptr %34, align 4, !tbaa !18
  %36 = sub nsw i32 %33, %35
  %37 = getelementptr inbounds nuw i32, ptr %0, i64 %indvars.iv.i34
  store i32 %36, ptr %37, align 4, !tbaa !18
  %indvars.iv.next.i35 = add nuw nsw i64 %indvars.iv.i34, 1
  %exitcond.not.i36 = icmp eq i64 %indvars.iv.next.i35, 10
  br i1 %exitcond.not.i36, label %fe_sub.exit37, label %fe_add.exit33, !llvm.loop !20

fe_sub.exit37:                                    ; preds = %fe_add.exit33, %fe_sub.exit37
  %indvars.iv.i38 = phi i64 [ %indvars.iv.next.i39, %fe_sub.exit37 ], [ 0, %fe_add.exit33 ]
  %38 = getelementptr inbounds nuw i32, ptr %21, i64 %indvars.iv.i38
  %39 = load i32, ptr %38, align 4, !tbaa !18
  %40 = getelementptr inbounds nuw i32, ptr %13, i64 %indvars.iv.i38
  %41 = load i32, ptr %40, align 4, !tbaa !18
  %42 = add nsw i32 %41, %39
  store i32 %42, ptr %40, align 4, !tbaa !18
  %indvars.iv.next.i39 = add nuw nsw i64 %indvars.iv.i38, 1
  %exitcond.not.i40 = icmp eq i64 %indvars.iv.next.i39, 10
  br i1 %exitcond.not.i40, label %fe_add.exit41, label %fe_sub.exit37, !llvm.loop !21

fe_add.exit41:                                    ; preds = %fe_sub.exit37, %fe_add.exit41
  %indvars.iv.i42 = phi i64 [ %indvars.iv.next.i43, %fe_add.exit41 ], [ 0, %fe_sub.exit37 ]
  %43 = getelementptr inbounds nuw i32, ptr %4, i64 %indvars.iv.i42
  %44 = load i32, ptr %43, align 4, !tbaa !18
  %45 = getelementptr inbounds nuw i32, ptr %23, i64 %indvars.iv.i42
  %46 = load i32, ptr %45, align 4, !tbaa !18
  %47 = add nsw i32 %46, %44
  %48 = getelementptr inbounds nuw i32, ptr %21, i64 %indvars.iv.i42
  store i32 %47, ptr %48, align 4, !tbaa !18
  %indvars.iv.next.i43 = add nuw nsw i64 %indvars.iv.i42, 1
  %exitcond.not.i44 = icmp eq i64 %indvars.iv.next.i43, 10
  br i1 %exitcond.not.i44, label %fe_add.exit45, label %fe_add.exit41, !llvm.loop !21

fe_add.exit45:                                    ; preds = %fe_add.exit41, %fe_add.exit45
  %indvars.iv.i46 = phi i64 [ %indvars.iv.next.i47, %fe_add.exit45 ], [ 0, %fe_add.exit41 ]
  %49 = getelementptr inbounds nuw i32, ptr %4, i64 %indvars.iv.i46
  %50 = load i32, ptr %49, align 4, !tbaa !18
  %51 = getelementptr inbounds nuw i32, ptr %23, i64 %indvars.iv.i46
  %52 = load i32, ptr %51, align 4, !tbaa !18
  %53 = sub nsw i32 %50, %52
  store i32 %53, ptr %51, align 4, !tbaa !18
  %indvars.iv.next.i47 = add nuw nsw i64 %indvars.iv.i46, 1
  %exitcond.not.i48 = icmp eq i64 %indvars.iv.next.i47, 10
  br i1 %exitcond.not.i48, label %fe_sub.exit49, label %fe_add.exit45, !llvm.loop !20

fe_sub.exit49:                                    ; preds = %fe_add.exit45
  call void @llvm.lifetime.end.p0(i64 40, ptr nonnull %4) #8
  ret void
}